; Function Attrs: mustprogress uwtable
define void @_Z6SetExtPwPKwm(ptr noundef %0, ptr noundef %1, i64 noundef %2) local_unnamed_addr #3 {
  %4 = icmp eq ptr %0, null
  br i1 %4, label %25, label %5

5:                                                ; preds = %3
  %6 = load i32, ptr %0, align 4
  %7 = icmp eq i32 %6, 0
  br i1 %7, label %25, label %8

8:                                                ; preds = %5
  %9 = tail call i64 @wcslen(ptr noundef nonnull readonly %0) #18
  %10 = and i64 %9, 4294967295
  br label %11

11:                                               ; preds = %14, %8
  %indvars.iv.i.i = phi i64 [ %15, %14 ], [ %10, %8 ]
  %12 = trunc nuw i64 %indvars.iv.i.i to i32
  %13 = icmp sgt i32 %12, 0
  br i1 %13, label %14, label %_Z6GetExtPKw.exit

14:                                               ; preds = %11
  %15 = add nsw i64 %indvars.iv.i.i, -1
  %16 = getelementptr inbounds nuw i32, ptr %0, i64 %15
  %17 = load i32, ptr %16, align 4
  %18 = icmp eq i32 %17, 47
  br i1 %18, label %19, label %11, !llvm.loop !4

19:                                               ; preds = %14
  %20 = getelementptr inbounds nuw i32, ptr %0, i64 %indvars.iv.i.i
  br label %_Z6GetExtPKw.exit

_Z6GetExtPKw.exit:                                ; preds = %11, %19
  %.011.i.i = phi ptr [ %20, %19 ], [ %0, %11 ]
  %21 = tail call ptr @wcsrchr(ptr noundef %.011.i.i, i32 noundef signext 46) #18
  %.not = icmp eq ptr %21, null
  br i1 %.not, label %23, label %22

22:                                               ; preds = %_Z6GetExtPKw.exit
  store i32 0, ptr %21, align 4
  br label %23

23:                                               ; preds = %22, %_Z6GetExtPKw.exit
  %.not12 = icmp eq ptr %1, null
  br i1 %.not12, label %25, label %24

24:                                               ; preds = %23
  tail call void @_Z8wcsncatzPwPKwm(ptr noundef nonnull %0, ptr noundef nonnull @.str, i64 noundef %2)
  tail call void @_Z8wcsncatzPwPKwm(ptr noundef nonnull %0, ptr noundef nonnull %1, i64 noundef %2)
  br label %25

25:                                               ; preds = %3, %5, %24, %23
  ret void
}